; Function Attrs: mustprogress uwtable
define dso_local void @_Z9Recursioni(i32 noundef %0) local_unnamed_addr #3 personality ptr @__gxx_personality_v0 {
  %2 = alloca %"class.pxrInternal_v0_24__pxrReserved__::TraceKey", align 8
  %3 = alloca %"class.pxrInternal_v0_24__pxrReserved__::TraceKey", align 8
  %4 = load atomic i32, ptr @_ZN32pxrInternal_v0_24__pxrReserved__14TraceCollector10_isEnabledE acquire, align 4
  %5 = icmp eq i32 %4, 1
  br i1 %5, label %6, label %_ZN32pxrInternal_v0_24__pxrReserved__14TraceScopeAutoC2ERKNS_18TraceStaticKeyDataE.exit

6:                                                ; preds = %1
  fence syncscope("singlethread") seq_cst
  %7 = tail call { i32, i32 } asm sideeffect "lfence\0A\09rdtsc\0A\09lfence", "={ax},={dx},~{dirflag},~{fpsr},~{flags}"() #18, !srcloc !5
  %8 = extractvalue { i32, i32 } %7, 0
  %9 = extractvalue { i32, i32 } %7, 1
  %10 = zext i32 %9 to i64
  %11 = shl nuw i64 %10, 32
  %12 = zext i32 %8 to i64
  br label %_ZN32pxrInternal_v0_24__pxrReserved__14TraceScopeAutoC2ERKNS_18TraceStaticKeyDataE.exit

_ZN32pxrInternal_v0_24__pxrReserved__14TraceScopeAutoC2ERKNS_18TraceStaticKeyDataE.exit: ; preds = %1, %6
  %.sroa.7.0 = phi i64 [ %12, %6 ], [ 0, %1 ]
  %.sroa.11.0 = phi i64 [ %11, %6 ], [ 0, %1 ]
  %13 = icmp slt i32 %0, 2
  br i1 %13, label %16, label %14

14:                                               ; preds = %_ZN32pxrInternal_v0_24__pxrReserved__14TraceScopeAutoC2ERKNS_18TraceStaticKeyDataE.exit
  %15 = add nsw i32 %0, -1
  invoke void @_Z9Recursioni(i32 noundef %15)
          to label %16 unwind label %19

16:                                               ; preds = %14, %_ZN32pxrInternal_v0_24__pxrReserved__14TraceScopeAutoC2ERKNS_18TraceStaticKeyDataE.exit
  call void @llvm.lifetime.start.p0(i64 8, ptr nonnull %3)
  br i1 %5, label %17, label %_ZN32pxrInternal_v0_24__pxrReserved__14TraceScopeAutoD2Ev.exit

17:                                               ; preds = %16
  fence syncscope("singlethread") seq_cst
  %18 = tail call noundef i64 asm sideeffect "rdtscp\0A\09shl $$32, %rdx\0A\09or %rdx, $0\0A\09lfence", "={ax},~{rcx},~{rdx},~{cc},~{dirflag},~{fpsr},~{flags}"() #18, !srcloc !6
  store ptr @_ZZ9RecursioniE15TraceKeyData_33, ptr %3, align 8
  %.sroa.7.12.insert.insert = or disjoint i64 %.sroa.11.0, %.sroa.7.0
  call void @_ZN32pxrInternal_v0_24__pxrReserved__14TraceCollector5ScopeERKNS_8TraceKeyEmm(ptr noundef nonnull align 8 dereferenceable(8) %3, i64 noundef %.sroa.7.12.insert.insert, i64 noundef %18) #18
  br label %_ZN32pxrInternal_v0_24__pxrReserved__14TraceScopeAutoD2Ev.exit

_ZN32pxrInternal_v0_24__pxrReserved__14TraceScopeAutoD2Ev.exit: ; preds = %16, %17
  call void @llvm.lifetime.end.p0(i64 8, ptr nonnull %3)
  ret void

19:                                               ; preds = %14
  %20 = landingpad { ptr, i32 }
          cleanup
  call void @llvm.lifetime.start.p0(i64 8, ptr nonnull %2)
  br i1 %5, label %21, label %_ZN32pxrInternal_v0_24__pxrReserved__14TraceScopeAutoD2Ev.exit3

21:                                               ; preds = %19
  fence syncscope("singlethread") seq_cst
  %22 = tail call noundef i64 asm sideeffect "rdtscp\0A\09shl $$32, %rdx\0A\09or %rdx, $0\0A\09lfence", "={ax},~{rcx},~{rdx},~{cc},~{dirflag},~{fpsr},~{flags}"() #18, !srcloc !6
  store ptr @_ZZ9RecursioniE15TraceKeyData_33, ptr %2, align 8
  %.sroa.7.12.insert.insert9 = or disjoint i64 %.sroa.11.0, %.sroa.7.0
  call void @_ZN32pxrInternal_v0_24__pxrReserved__14TraceCollector5ScopeERKNS_8TraceKeyEmm(ptr noundef nonnull align 8 dereferenceable(8) %2, i64 noundef %.sroa.7.12.insert.insert9, i64 noundef %22) #18
  br label %_ZN32pxrInternal_v0_24__pxrReserved__14TraceScopeAutoD2Ev.exit3

_ZN32pxrInternal_v0_24__pxrReserved__14TraceScopeAutoD2Ev.exit3: ; preds = %19, %21
  call void @llvm.lifetime.end.p0(i64 8, ptr nonnull %2)
  resume { ptr, i32 } %20
}